; Function Attrs: nounwind uwtable
define dso_local i64 @range_gist_same(ptr noundef %0) local_unnamed_addr #0 {
  %2 = getelementptr inbounds nuw i8, ptr %0, i64 32
  %3 = load i64, ptr %2, align 8
  %4 = inttoptr i64 %3 to ptr
  %5 = tail call ptr @pg_detoast_datum(ptr noundef %4) #10
  %6 = getelementptr inbounds nuw i8, ptr %0, i64 48
  %7 = load i64, ptr %6, align 8
  %8 = inttoptr i64 %7 to ptr
  %9 = tail call ptr @pg_detoast_datum(ptr noundef %8) #10
  %10 = getelementptr inbounds nuw i8, ptr %0, i64 64
  %11 = load i64, ptr %10, align 8
  %12 = tail call signext i8 @range_get_flags(ptr noundef %5) #10
  %13 = tail call signext i8 @range_get_flags(ptr noundef %9) #10
  %.not = icmp eq i8 %12, %13
  br i1 %.not, label %14, label %20

14:                                               ; preds = %1
  %15 = getelementptr inbounds nuw i8, ptr %5, i64 4
  %16 = load i32, ptr %15, align 4
  %17 = tail call ptr @range_get_typcache(ptr noundef nonnull %0, i32 noundef %16) #10
  %18 = tail call zeroext i1 @range_eq_internal(ptr noundef %17, ptr noundef %5, ptr noundef %9) #10
  %19 = zext i1 %18 to i8
  br label %20

20:                                               ; preds = %1, %14
  %storemerge = phi i8 [ %19, %14 ], [ 0, %1 ]
  %21 = inttoptr i64 %11 to ptr
  store i8 %storemerge, ptr %21, align 1
  ret i64 %11
}